target datalayout = "e-m:e-p270:32:32-p271:32:32-p272:64:64-i64:64-i128:128-f80:128-n8:16:32:64-S128"
target triple = "x86_64-pc-linux-gnu"

@.str.38 = private unnamed_addr constant [25 x i8] c"../openssl/apps/engine.c\00", align 1
@.str.46 = private unnamed_addr constant [14 x i8] c"engine buffer\00", align 1

; Function Attrs: nounwind uwtable
define internal i32 @append_buf(ptr noundef %0, ptr noundef %1, ptr noundef %2) #0 {
  %4 = alloca i32, align 4
  %5 = alloca ptr, align 8
  %6 = alloca ptr, align 8
  %7 = alloca ptr, align 8
  %8 = alloca i32, align 4
  %9 = alloca i32, align 4
  %10 = alloca ptr, align 8
  %11 = alloca i32, align 4
  %12 = alloca i32, align 4
  store ptr %0, ptr %5, align 8, !tbaa !8
  store ptr %1, ptr %6, align 8, !tbaa !28
  store ptr %2, ptr %7, align 8, !tbaa !15
  call void @llvm.lifetime.start.p0(i64 4, ptr %8) #7
  store i32 256, ptr %8, align 4, !tbaa !4
  call void @llvm.lifetime.start.p0(i64 4, ptr %9) #7
  %13 = load ptr, ptr %7, align 8, !tbaa !15
  %14 = call i64 @strlen(ptr noundef %13) #8
  %15 = add i64 %14, 1
  %16 = trunc i64 %15 to i32
  store i32 %16, ptr %9, align 4, !tbaa !4
  call void @llvm.lifetime.start.p0(i64 8, ptr %10) #7
  %17 = load ptr, ptr %5, align 8, !tbaa !8
  %18 = load ptr, ptr %17, align 8, !tbaa !15
  store ptr %18, ptr %10, align 8, !tbaa !15
  %19 = load ptr, ptr %10, align 8, !tbaa !15
  %20 = icmp eq ptr %19, null
  br i1 %20, label %21, label %33

21:                                               ; preds = %3
  %22 = load i32, ptr %9, align 4, !tbaa !4
  %23 = add nsw i32 %22, 256
  %24 = sub nsw i32 %23, 1
  %25 = sdiv i32 %24, 256
  %26 = mul nsw i32 %25, 256
  %27 = load ptr, ptr %6, align 8, !tbaa !28
  store i32 %26, ptr %27, align 4, !tbaa !4
  %28 = load ptr, ptr %6, align 8, !tbaa !28
  %29 = load i32, ptr %28, align 4, !tbaa !4
  %30 = sext i32 %29 to i64
  %31 = call ptr @app_malloc(i64 noundef %30, ptr noundef @.str.46)
  %32 = load ptr, ptr %5, align 8, !tbaa !8
  store ptr %31, ptr %32, align 8, !tbaa !15
  store ptr %31, ptr %10, align 8, !tbaa !15
  br label %86

33:                                               ; preds = %3
  call void @llvm.lifetime.start.p0(i64 4, ptr %11) #7
  %34 = load ptr, ptr %10, align 8, !tbaa !15
  %35 = call i64 @strlen(ptr noundef %34) #8
  %36 = trunc i64 %35 to i32
  store i32 %36, ptr %11, align 4, !tbaa !4
  %37 = load i32, ptr %11, align 4, !tbaa !4
  %38 = icmp sgt i32 %37, 0
  br i1 %38, label %39, label %44

39:                                               ; preds = %33
  %40 = load i32, ptr %11, align 4, !tbaa !4
  %41 = add nsw i32 2, %40
  %42 = load i32, ptr %9, align 4, !tbaa !4
  %43 = add nsw i32 %42, %41
  store i32 %43, ptr %9, align 4, !tbaa !4
  br label %44

44:                                               ; preds = %39, %33
  %45 = load i32, ptr %9, align 4, !tbaa !4
  %46 = load ptr, ptr %6, align 8, !tbaa !28
  %47 = load i32, ptr %46, align 4, !tbaa !4
  %48 = icmp sgt i32 %45, %47
  br i1 %48, label %49, label %70

49:                                               ; preds = %44
  %50 = load i32, ptr %9, align 4, !tbaa !4
  %51 = add nsw i32 %50, 256
  %52 = sub nsw i32 %51, 1
  %53 = sdiv i32 %52, 256
  %54 = mul nsw i32 %53, 256
  %55 = load ptr, ptr %6, align 8, !tbaa !28
  store i32 %54, ptr %55, align 4, !tbaa !4
  %56 = load ptr, ptr %10, align 8, !tbaa !15
  %57 = load ptr, ptr %6, align 8, !tbaa !28
  %58 = load i32, ptr %57, align 4, !tbaa !4
  %59 = sext i32 %58 to i64
  %60 = call ptr @CRYPTO_realloc(ptr noundef %56, i64 noundef %59, ptr noundef @.str.38, i32 noundef 72)
  store ptr %60, ptr %10, align 8, !tbaa !15
  %61 = load ptr, ptr %10, align 8, !tbaa !15
  %62 = icmp eq ptr %61, null
  br i1 %62, label %63, label %67

63:                                               ; preds = %49
  %64 = load ptr, ptr %5, align 8, !tbaa !8
  %65 = load ptr, ptr %64, align 8, !tbaa !15
  call void @CRYPTO_free(ptr noundef %65, ptr noundef @.str.38, i32 noundef 74)
  %66 = load ptr, ptr %5, align 8, !tbaa !8
  store ptr null, ptr %66, align 8, !tbaa !15
  store i32 0, ptr %4, align 4
  store i32 1, ptr %12, align 4
  br label %83

67:                                               ; preds = %49
  %68 = load ptr, ptr %10, align 8, !tbaa !15
  %69 = load ptr, ptr %5, align 8, !tbaa !8
  store ptr %68, ptr %69, align 8, !tbaa !15
  br label %70

70:                                               ; preds = %67, %44
  %71 = load i32, ptr %11, align 4, !tbaa !4
  %72 = icmp sgt i32 %71, 0
  br i1 %72, label %73, label %82

73:                                               ; preds = %70
  %74 = load i32, ptr %11, align 4, !tbaa !4
  %75 = load ptr, ptr %10, align 8, !tbaa !15
  %76 = sext i32 %74 to i64
  %77 = getelementptr inbounds i8, ptr %75, i64 %76
  store ptr %77, ptr %10, align 8, !tbaa !15
  %78 = load ptr, ptr %10, align 8, !tbaa !15
  %79 = getelementptr inbounds nuw i8, ptr %78, i32 1
  store ptr %79, ptr %10, align 8, !tbaa !15
  store i8 44, ptr %78, align 1, !tbaa !19
  %80 = load ptr, ptr %10, align 8, !tbaa !15
  %81 = getelementptr inbounds nuw i8, ptr %80, i32 1
  store ptr %81, ptr %10, align 8, !tbaa !15
  store i8 32, ptr %80, align 1, !tbaa !19
  br label %82

82:                                               ; preds = %73, %70
  store i32 0, ptr %12, align 4
  br label %83

83:                                               ; preds = %82, %63
  call void @llvm.lifetime.end.p0(i64 4, ptr %11) #7
  %84 = load i32, ptr %12, align 4
  switch i32 %84, label %90 [
    i32 0, label %85
  ]

85:                                               ; preds = %83
  br label %86

86:                                               ; preds = %85, %21
  %87 = load ptr, ptr %10, align 8, !tbaa !15
  %88 = load ptr, ptr %7, align 8, !tbaa !15
  %89 = call ptr @strcpy(ptr noundef %87, ptr noundef %88) #7
  store i32 1, ptr %4, align 4
  store i32 1, ptr %12, align 4
  br label %90

90:                                               ; preds = %86, %83
  call void @llvm.lifetime.end.p0(i64 8, ptr %10) #7
  call void @llvm.lifetime.end.p0(i64 4, ptr %9) #7
  call void @llvm.lifetime.end.p0(i64 4, ptr %8) #7
  %91 = load i32, ptr %4, align 4
  ret i32 %91
}