; Function Attrs: nounwind uwtable
define internal fastcc range(i32 0, 2) i32 @append_buf(ptr noundef captures(none) %0, ptr noundef captures(none) %1, ptr noundef readonly captures(none) %2) unnamed_addr #0 {
  %4 = tail call i64 @strlen(ptr noundef nonnull dereferenceable(1) %2) #8
  %5 = trunc i64 %4 to i32
  %6 = load ptr, ptr %0, align 8, !tbaa !4
  %7 = icmp eq ptr %6, null
  br i1 %7, label %8, label %14

8:                                                ; preds = %3
  %9 = add i32 %5, 256
  %10 = sdiv i32 %9, 256
  %11 = shl nsw i32 %10, 8
  store i32 %11, ptr %1, align 4, !tbaa !17
  %12 = sext i32 %11 to i64
  %13 = tail call ptr @app_malloc(i64 noundef %12, ptr noundef nonnull @.str.46) #7
  store ptr %13, ptr %0, align 8, !tbaa !4
  br label %.thread

14:                                               ; preds = %3
  %15 = add i32 %5, 1
  %16 = tail call i64 @strlen(ptr noundef nonnull dereferenceable(1) %6) #8
  %17 = trunc i64 %16 to i32
  %18 = icmp sgt i32 %17, 0
  %19 = add nuw nsw i32 %17, 2
  %20 = select i1 %18, i32 %19, i32 0
  %.033 = add nsw i32 %15, %20
  %21 = load i32, ptr %1, align 4, !tbaa !17
  %22 = icmp sgt i32 %.033, %21
  br i1 %22, label %23, label %31

23:                                               ; preds = %14
  %24 = add nsw i32 %.033, 255
  %25 = sdiv i32 %24, 256
  %26 = shl nsw i32 %25, 8
  store i32 %26, ptr %1, align 4, !tbaa !17
  %27 = sext i32 %26 to i64
  %28 = tail call ptr @CRYPTO_realloc(ptr noundef nonnull %6, i64 noundef %27, ptr noundef nonnull @.str.38, i32 noundef 72) #7
  %29 = icmp eq ptr %28, null
  br i1 %29, label %37, label %30

30:                                               ; preds = %23
  store ptr %28, ptr %0, align 8, !tbaa !4
  br label %31

31:                                               ; preds = %30, %14
  %.132 = phi ptr [ %28, %30 ], [ %6, %14 ]
  br i1 %18, label %32, label %.thread

32:                                               ; preds = %31
  %33 = and i64 %16, 2147483647
  %34 = getelementptr inbounds nuw i8, ptr %.132, i64 %33
  %35 = getelementptr inbounds nuw i8, ptr %34, i64 1
  store i8 44, ptr %34, align 1, !tbaa !9
  %36 = getelementptr inbounds nuw i8, ptr %34, i64 2
  store i8 32, ptr %35, align 1, !tbaa !9
  br label %.thread

37:                                               ; preds = %23
  %38 = load ptr, ptr %0, align 8, !tbaa !4
  tail call void @CRYPTO_free(ptr noundef %38, ptr noundef nonnull @.str.38, i32 noundef 74) #7
  store ptr null, ptr %0, align 8, !tbaa !4
  br label %40

.thread:                                          ; preds = %31, %32, %8
  %.031 = phi ptr [ %13, %8 ], [ %.132, %31 ], [ %36, %32 ]
  %39 = tail call ptr @strcpy(ptr noundef nonnull dereferenceable(1) %.031, ptr noundef nonnull dereferenceable(1) %2) #7
  br label %40

40:                                               ; preds = %37, %.thread
  %.1 = phi i32 [ 1, %.thread ], [ 0, %37 ]
  ret i32 %.1
}